target datalayout = "e-m:e-p270:32:32-p271:32:32-p272:64:64-i64:64-i128:128-f80:128-n8:16:32:64-S128"
target triple = "x86_64-pc-linux-gnu"

%struct.lua_TValue = type { %union.Value, [1 x i32], i32 }
%union.Value = type { ptr }
%union.L_Umaxalign = type { double }
%struct.Buffer = type { i8, i8, i8, i32, %union.anon.5 }
%union.anon.5 = type { %union.L_Umaxalign }

; Function Attrs: mustprogress nounwind uwtable
define internal noundef i32 @_ZL18luauF_writeintegerIjEiP9lua_StateP10lua_TValueS3_iS3_i(ptr noundef %0, ptr noundef %1, ptr noundef %2, i32 noundef %3, ptr noundef %4, i32 noundef %5) #0 {
  %7 = alloca i32, align 4
  %8 = alloca ptr, align 8
  %9 = alloca ptr, align 8
  %10 = alloca ptr, align 8
  %11 = alloca i32, align 4
  %12 = alloca ptr, align 8
  %13 = alloca i32, align 4
  %14 = alloca i32, align 4
  %15 = alloca i32, align 4
  %16 = alloca i32, align 4
  %17 = alloca double, align 8
  %18 = alloca i32, align 4
  store ptr %0, ptr %8, align 8, !tbaa !4
  store ptr %1, ptr %9, align 8, !tbaa !9
  store ptr %2, ptr %10, align 8, !tbaa !9
  store i32 %3, ptr %11, align 4, !tbaa !11
  store ptr %4, ptr %12, align 8, !tbaa !9
  store i32 %5, ptr %13, align 4, !tbaa !11
  %19 = load i32, ptr %13, align 4, !tbaa !11
  %20 = icmp sge i32 %19, 3
  br i1 %20, label %21, label %74

21:                                               ; preds = %6
  %22 = load i32, ptr %11, align 4, !tbaa !11
  %23 = icmp sle i32 %22, 0
  br i1 %23, label %24, label %74

24:                                               ; preds = %21
  %25 = load ptr, ptr %10, align 8, !tbaa !9
  %26 = getelementptr inbounds nuw %struct.lua_TValue, ptr %25, i32 0, i32 2
  %27 = load i32, ptr %26, align 4, !tbaa !13
  %28 = icmp eq i32 %27, 10
  br i1 %28, label %29, label %74

29:                                               ; preds = %24
  %30 = load ptr, ptr %12, align 8, !tbaa !9
  %31 = getelementptr inbounds nuw %struct.lua_TValue, ptr %30, i32 0, i32 2
  %32 = load i32, ptr %31, align 4, !tbaa !13
  %33 = icmp eq i32 %32, 3
  br i1 %33, label %34, label %74

34:                                               ; preds = %29
  %35 = load ptr, ptr %12, align 8, !tbaa !9
  %36 = getelementptr inbounds %struct.lua_TValue, ptr %35, i64 1
  %37 = getelementptr inbounds nuw %struct.lua_TValue, ptr %36, i32 0, i32 2
  %38 = load i32, ptr %37, align 4, !tbaa !13
  %39 = icmp eq i32 %38, 3
  br i1 %39, label %40, label %74

40:                                               ; preds = %34
  call void @llvm.lifetime.start.p0(i64 4, ptr %14) #17
  %41 = load ptr, ptr %12, align 8, !tbaa !9
  %42 = getelementptr inbounds nuw %struct.lua_TValue, ptr %41, i32 0, i32 0
  %43 = load double, ptr %42, align 8, !tbaa !15
  %44 = fptosi double %43 to i32
  store i32 %44, ptr %14, align 4, !tbaa !11
  %45 = load i32, ptr %14, align 4, !tbaa !11
  %46 = zext i32 %45 to i64
  %47 = add i64 %46, 3
  %48 = load ptr, ptr %10, align 8, !tbaa !9
  %49 = getelementptr inbounds nuw %struct.lua_TValue, ptr %48, i32 0, i32 0
  %50 = load ptr, ptr %49, align 8, !tbaa !15
  %51 = getelementptr inbounds nuw %struct.Buffer, ptr %50, i32 0, i32 3
  %52 = load i32, ptr %51, align 4, !tbaa !83
  %53 = zext i32 %52 to i64
  %54 = icmp uge i64 %47, %53
  br i1 %54, label %55, label %56

55:                                               ; preds = %40
  store i32 -1, ptr %7, align 4
  store i32 1, ptr %15, align 4
  br label %73

56:                                               ; preds = %40
  call void @llvm.lifetime.start.p0(i64 4, ptr %16) #17
  call void @llvm.lifetime.start.p0(i64 8, ptr %17) #17
  %57 = load ptr, ptr %12, align 8, !tbaa !9
  %58 = getelementptr inbounds %struct.lua_TValue, ptr %57, i64 1
  %59 = getelementptr inbounds nuw %struct.lua_TValue, ptr %58, i32 0, i32 0
  %60 = load double, ptr %59, align 8, !tbaa !15
  store double %60, ptr %17, align 8, !tbaa !16
  %61 = load double, ptr %17, align 8, !tbaa !16
  %62 = fptosi double %61 to i64
  %63 = trunc i64 %62 to i32
  store i32 %63, ptr %16, align 4, !tbaa !11
  call void @llvm.lifetime.start.p0(i64 4, ptr %18) #17
  %64 = load i32, ptr %16, align 4, !tbaa !11
  store i32 %64, ptr %18, align 4, !tbaa !11
  %65 = load ptr, ptr %10, align 8, !tbaa !9
  %66 = getelementptr inbounds nuw %struct.lua_TValue, ptr %65, i32 0, i32 0
  %67 = load ptr, ptr %66, align 8, !tbaa !15
  %68 = getelementptr inbounds nuw %struct.Buffer, ptr %67, i32 0, i32 4
  %69 = getelementptr inbounds [1 x i8], ptr %68, i64 0, i64 0
  %70 = load i32, ptr %14, align 4, !tbaa !11
  %71 = zext i32 %70 to i64
  %72 = getelementptr inbounds nuw i8, ptr %69, i64 %71
  call void @llvm.memcpy.p0.p0.i64(ptr align 1 %72, ptr align 4 %18, i64 4, i1 false)
  store i32 0, ptr %7, align 4
  store i32 1, ptr %15, align 4
  call void @llvm.lifetime.end.p0(i64 4, ptr %18) #17
  call void @llvm.lifetime.end.p0(i64 8, ptr %17) #17
  call void @llvm.lifetime.end.p0(i64 4, ptr %16) #17
  br label %73

73:                                               ; preds = %56, %55
  call void @llvm.lifetime.end.p0(i64 4, ptr %14) #17
  br label %75

74:                                               ; preds = %34, %29, %24, %21, %6
  store i32 -1, ptr %7, align 4
  br label %75

75:                                               ; preds = %74, %73
  %76 = load i32, ptr %7, align 4
  ret i32 %76
}